Certificate:
    Data:
        Version: 3 (0x2)
        Serial Number: 2 (0x2)
    Signature Algorithm: sha256WithRSAEncryption
        Issuer: C=DE, O=Red Hat IdM, OU=Custodia, CN=Custodia Test CA
        Validity
            Not Before: Feb 28 13:18:34 2017 GMT
            Not After : Feb 28 13:18:34 2021 GMT
        Subject: C=DE, O=Red Hat IdM, OU=Custodia, CN=localhost
        Subject Public Key Info:
            Public Key Algorithm: rsaEncryption
                Public-Key: (2048 bit)
                Modulus:
                    00:ca:56:11:b3:9a:3d:ff:f8:f5:34:c6:d6:86:46:
                    a6:75:f5:af:20:7c:19:36:83:d9:44:4a:8c:34:1c:
                    4b:df:49:c6:6f:1e:59:15:de:5d:08:4a:ab:b6:d2:
                    8f:fb:ee:c9:74:88:2b:f1:fa:ce:5d:f1:a3:4e:34:
                    d2:d6:c2:9f:5d:ee:3c:87:5c:2b:ea:df:3e:e8:78:
                    4f:93:23:46:d5:0e:6f:47:dc:b6:a9:09:ed:23:61:
                    ae:d3:a5:12:c4:5c:94:08:e3:7b:ef:5b:2a:7b:8d:
                    49:12:2a:59:5a:ee:da:07:b6:00:5e:24:32:b1:00:
                    38:d5:fe:47:d6:66:4d:d7:39:22:e0:3a:bc:c8:47:
                    e3:27:66:4c:5e:96:be:38:71:58:23:49:73:a4:01:
                    20:7f:d7:86:12:be:f1:0b:45:b7:13:14:73:7a:e5:
                    26:65:c4:be:1d:f8:0d:ab:8d:27:b1:30:0c:fb:96:
                    8b:06:87:3d:6d:75:f1:8c:8e:36:47:2d:21:b0:5d:
                    e6:d9:b7:f4:22:b0:9f:d6:b4:ea:6f:9a:8c:cb:53:
                    5f:6d:2f:23:a7:d8:f8:26:8f:0d:3d:98:17:37:29:
                    cf:5d:e0:5c:68:b7:6e:ea:88:35:fb:fa:b6:b6:55:
                    0b:4e:0f:11:cd:6e:20:32:b5:1e:9c:c1:ef:2d:85:
                    d9:0f
                Exponent: 65537 (0x10001)
        X509v3 extensions:
            X509v3 Basic Constraints: critical
                CA:FALSE
            X509v3 Key Usage: critical
                Digital Signature, Key Encipherment
            X509v3 Extended Key Usage: critical
                TLS Web Server Authentication
            X509v3 Subject Key Identifier: 
                62:B1:D9:66:47:1F:63:7D:70:EF:2B:4B:C0:0A:5F:5A:7E:F6:80:84
            X509v3 Authority Key Identifier: 
                keyid:50:56:9F:AA:F7:7B:4D:A5:63:D5:B1:19:B7:26:AE:D3:56:17:F4:C1

            X509v3 Subject Alternative Name: 
                DNS:localhost, IP Address:127.0.0.1
    Signature Algorithm: sha256WithRSAEncryption
         43:e5:5c:69:8e:b7:55:63:15:40:11:c6:38:e4:ae:85:78:2c:
         de:57:cc:b0:e6:d7:2f:8b:70:07:c0:21:c5:49:9c:bc:45:05:
         a6:6d:9a:1a:c9:ef:22:51:9c:84:1a:1a:72:c9:89:71:b3:47:
         0c:3c:46:65:45:0e:fe:52:bb:96:15:c7:63:88:26:5e:a4:74:
         b4:6d:a1:8e:69:c3:dc:ad:7a:4b:47:5e:e2:51:82:b2:66:89:
         fe:10:4d:02:83:49:63:cb:50:a3:af:ab:75:33:8c:f0:94:db:
         46:d9:c1:ad:39:cf:29:26:e0:15:67:33:31:32:f2:da:85:c7:
         5c:d9:ad:cf:1a:67:47:d2:bb:ae:e4:73:38:4a:73:a9:13:72:
         e7:02:e0:5e:db:cd:9c:1b:a8:ad:65:81:82:ca:b6:f8:7c:4e:
         91:5f:3c:15:66:db:c4:dc:72:15:cf:50:fb:1f:d3:51:25:47:
         f1:9b:f3:ff:4c:bf:7e:d5:d1:60:89:16:7f:ef:4d:76:56:4d:
         36:65:f4:b4:ee:e1:84:24:f3:bd:aa:8f:5d:b4:a9:eb:78:f1:
         0f:42:cc:8a:7d:e0:07:d1:7e:ba:e2:38:c6:15:6b:8d:0b:9f:
         49:7a:bc:0b:3e:d5:0c:31:f2:f0:66:38:81:b3:09:40:bc:c5:
         63:72:34:97
-----BEGIN CERTIFICATE-----
MIIDrDCCApSgAwIBAgIBAjANBgkqhkiG9w0BAQsFADBRMQswCQYDVQQGEwJERTEU
MBIGA1UECgwLUmVkIEhhdCBJZE0xETAPBgNVBAsMCEN1c3RvZGlhMRkwFwYDVQQD
DBBDdXN0b2RpYSBUZXN0IENBMB4XDTE3MDIyODEzMTgzNFoXDTIxMDIyODEzMTgz
NFowSjELMAkGA1UEBhMCREUxFDASBgNVBAoMC1JlZCBIYXQgSWRNMREwDwYDVQQL
DAhDdXN0b2RpYTESMBAGA1UEAwwJbG9jYWxob3N0MIIBIjANBgkqhkiG9w0BAQEF
AAOCAQ8AMIIBCgKCAQEAylYRs5o9//j1NMbWhkamdfWvIHwZNoPZREqMNBxL30nG
bx5ZFd5dCEqrttKP++7JdIgr8frOXfGjTjTS1sKfXe48h1wr6t8+6HhPkyNG1Q5v
R9y2qQntI2Gu06USxFyUCON771sqe41JEipZWu7aB7YAXiQysQA41f5H1mZN1zki
4Dq8yEfjJ2ZMXpa+OHFYI0lzpAEgf9eGEr7xC0W3ExRzeuUmZcS+HfgNq40nsTAM
+5aLBoc9bXXxjI42Ry0hsF3m2bf0IrCf1rTqb5qMy1NfbS8jp9j4Jo8NPZgXNynP
XeBcaLdu6og1+/q2tlULTg8RzW4gMrUenMHvLYXZDwIDAQABo4GVMIGSMAwGA1Ud
EwEB/wQCMAAwDgYDVR0PAQH/BAQDAgWgMBYGA1UdJQEB/wQMMAoGCCsGAQUFBwMB
MB0GA1UdDgQWBBRisdlmRx9jfXDvK0vACl9afvaAhDAfBgNVHSMEGDAWgBRQVp+q
93tNpWPVsRm3Jq7TVhf0wTAaBgNVHREEEzARgglsb2NhbGhvc3SHBH8AAAEwDQYJ
KoZIhvcNAQELBQADggEBAEPlXGmOt1VjFUARxjjkroV4LN5XzLDm1y+LcAfAIcVJ
nLxFBaZtmhrJ7yJRnIQaGnLJiXGzRww8RmVFDv5Su5YVx2OIJl6kdLRtoY5pw9yt
ektHXuJRgrJmif4QTQKDSWPLUKOvq3UzjPCU20bZwa05zykm4BVnMzEy8tqFx1zZ
rc8aZ0fSu67kczhKc6kTcucC4F7bzZwbqK1lgYLKtvh8TpFfPBVm28TcchXPUPsf
01ElR/Gb8/9Mv37V0WCJFn/vTXZWTTZl9LTu4YQk872qj120qet48Q9CzIp94AfR
frriOMYVa40Ln0l6vAs+1Qwx8vBmOIGzCUC8xWNyNJc=
-----END CERTIFICATE-----
