Certificate:
    Data:
        Version: 3 (0x2)
        Serial Number: 3 (0x3)
        Signature Algorithm: sha384WithRSAEncryption
        Issuer: C=DE, O=Red Hat IdM, OU=Custodia, CN=Custodia Test CA
        Validity
            Not Before: Sep 14 19:05:29 2022 GMT
            Not After : Sep 13 19:05:29 2027 GMT
        Subject: C=DE, O=Red Hat IdM, OU=Custodia, CN=client
        Subject Public Key Info:
            Public Key Algorithm: rsaEncryption
                Public-Key: (2048 bit)
                Modulus:
                    00:9c:16:17:22:8e:cd:fb:97:87:0e:03:4b:8a:8d:
                    06:16:c6:e6:21:ef:16:42:26:68:71:2e:1d:a2:ad:
                    18:26:80:85:65:01:73:98:99:a4:45:11:f2:4f:b2:
                    1e:ee:12:8d:06:78:f9:ff:97:81:ee:af:ee:2c:12:
                    00:8c:b6:ea:1a:27:b2:34:31:e1:34:e3:bf:06:13:
                    21:d2:4b:36:6d:76:e7:8f:62:4e:c5:d4:96:88:f7:
                    04:20:14:de:58:34:36:f6:06:3c:2d:ae:a9:b9:04:
                    04:0e:e1:13:d5:d6:5b:f0:a9:2b:fe:f8:f6:09:70:
                    f1:e7:6f:42:c9:84:78:65:2a:0c:57:22:a8:70:91:
                    d4:d8:54:3b:87:ae:ca:91:53:b8:43:01:c9:69:25:
                    fe:a0:f9:dd:8f:03:c6:58:d8:a0:bc:b8:48:1c:6b:
                    55:ed:44:5f:8b:60:6a:1a:1b:9d:45:a4:57:6c:07:
                    cb:db:ff:75:dd:26:7e:2a:d0:f8:2d:1f:11:2e:8c:
                    d4:af:26:27:a3:6a:fb:dc:c6:a5:e0:ee:95:79:8d:
                    0f:17:ca:9e:6f:26:32:6e:ef:a2:a1:89:ae:89:11:
                    e1:2d:7a:a9:75:f1:e6:f5:d4:dd:ce:62:59:d8:f0:
                    87:9b:94:a9:df:6a:f7:d0:c1:98:4c:04:25:b8:1f:
                    c8:ef
                Exponent: 65537 (0x10001)
        X509v3 extensions:
            X509v3 Basic Constraints: critical
                CA:FALSE
            X509v3 Key Usage: critical
                Digital Signature
            X509v3 Extended Key Usage: critical
                TLS Web Client Authentication
            X509v3 Subject Key Identifier: 
                7F:C2:C0:A2:BC:7A:D6:F1:84:6C:23:EB:36:02:58:A6:F3:16:7D:CB
            X509v3 Authority Key Identifier: 
                54:17:6B:06:64:74:EA:79:31:1D:0C:B8:59:8D:74:FA:B8:D0:20:C1
    Signature Algorithm: sha384WithRSAEncryption
    Signature Value:
        60:53:ca:00:0a:b4:b0:06:64:fe:8e:e9:cf:e3:0a:05:a2:37:
        cd:77:bd:9c:2e:a7:a5:14:65:50:d6:a3:de:54:11:13:3a:e1:
        44:23:6b:cb:67:f7:ad:86:91:6d:a0:8c:9a:86:c8:c2:c0:fa:
        c3:04:bb:aa:e0:ac:70:01:79:1d:1b:7f:90:11:30:f8:fd:d2:
        47:f6:54:53:58:4b:f2:f3:06:cf:4c:f8:80:40:c6:36:94:93:
        3b:bc:e9:58:0e:8c:0d:dd:14:68:2c:d1:e3:f3:7f:90:b9:c5:
        fb:4d:1f:af:91:78:d2:f3:ef:06:68:bd:e0:85:80:bd:ec:c4:
        e2:1f:e8:9a:2b:d9:7a:2d:7c:2f:69:1d:94:68:9c:78:cf:6d:
        d1:06:c0:eb:84:4a:ec:c1:2f:20:ba:7d:fc:4c:16:77:ad:da:
        cb:3f:77:1a:34:19:0e:3e:6e:2f:31:5f:d6:e8:fa:13:d1:3a:
        a6:3f:6e:0c:4d:43:1a:6c:17:ee:5e:11:6a:a5:7e:4b:59:d4:
        37:ac:f6:36:31:26:53:6e:fb:60:d0:78:ab:d2:92:97:ad:c5:
        95:2d:b6:f4:a8:b8:d5:26:83:e8:c1:80:7b:67:cc:de:a0:4c:
        09:a7:e9:09:0b:52:33:cd:ed:67:d4:72:cb:03:74:56:db:05:
        52:ba:17:c5:e4:1e:f5:38:30:f1:08:f7:1d:5f:a2:8e:54:1b:
        20:d5:07:10:57:ae:bb:89:2b:3b:c9:5f:07:ad:12:98:66:f9:
        36:82:81:7a:68:e6:29:10:ec:ae:16:9f:4a:cb:67:41:7e:45:
        74:58:29:2b:17:02:5c:c5:44:6c:74:19:50:fb:7b:5f:fc:cd:
        86:19:9e:ff:08:80:ec:39:62:0b:78:b0:e3:74:1c:b8:bd:e5:
        1e:2a:33:bf:6c:46:3d:3c:1a:56:08:82:72:5a:61:61:26:0f:
        69:02:23:44:39:b3:7a:56:7b:06:c8:6c:b2:e8:0f:69:22:1a:
        94:ea:37:4c:08:6d
-----BEGIN CERTIFICATE-----
MIIECzCCAnOgAwIBAgIBAzANBgkqhkiG9w0BAQwFADBRMQswCQYDVQQGEwJERTEU
MBIGA1UECgwLUmVkIEhhdCBJZE0xETAPBgNVBAsMCEN1c3RvZGlhMRkwFwYDVQQD
DBBDdXN0b2RpYSBUZXN0IENBMB4XDTIyMDkxNDE5MDUyOVoXDTI3MDkxMzE5MDUy
OVowRzELMAkGA1UEBhMCREUxFDASBgNVBAoMC1JlZCBIYXQgSWRNMREwDwYDVQQL
DAhDdXN0b2RpYTEPMA0GA1UEAwwGY2xpZW50MIIBIjANBgkqhkiG9w0BAQEFAAOC
AQ8AMIIBCgKCAQEAnBYXIo7N+5eHDgNLio0GFsbmIe8WQiZocS4doq0YJoCFZQFz
mJmkRRHyT7Ie7hKNBnj5/5eB7q/uLBIAjLbqGieyNDHhNOO/BhMh0ks2bXbnj2JO
xdSWiPcEIBTeWDQ29gY8La6puQQEDuET1dZb8Kkr/vj2CXDx529CyYR4ZSoMVyKo
cJHU2FQ7h67KkVO4QwHJaSX+oPndjwPGWNigvLhIHGtV7URfi2BqGhudRaRXbAfL
2/913SZ+KtD4LR8RLozUryYno2r73Mal4O6VeY0PF8qebyYybu+ioYmuiRHhLXqp
dfHm9dTdzmJZ2PCHm5Sp32r30MGYTAQluB/I7wIDAQABo3gwdjAMBgNVHRMBAf8E
AjAAMA4GA1UdDwEB/wQEAwIHgDAWBgNVHSUBAf8EDDAKBggrBgEFBQcDAjAdBgNV
HQ4EFgQUf8LAorx61vGEbCPrNgJYpvMWfcswHwYDVR0jBBgwFoAUVBdrBmR06nkx
HQy4WY10+rjQIMEwDQYJKoZIhvcNAQEMBQADggGBAGBTygAKtLAGZP6O6c/jCgWi
N813vZwup6UUZVDWo95UERM64UQja8tn962GkW2gjJqGyMLA+sMEu6rgrHABeR0b
f5ARMPj90kf2VFNYS/LzBs9M+IBAxjaUkzu86VgOjA3dFGgs0ePzf5C5xftNH6+R
eNLz7wZoveCFgL3sxOIf6Jor2XotfC9pHZRonHjPbdEGwOuESuzBLyC6ffxMFnet
2ss/dxo0GQ4+bi8xX9bo+hPROqY/bgxNQxpsF+5eEWqlfktZ1Des9jYxJlNu+2DQ
eKvSkpetxZUttvSouNUmg+jBgHtnzN6gTAmn6QkLUjPN7WfUcssDdFbbBVK6F8Xk
HvU4MPEI9x1foo5UGyDVBxBXrruJKzvJXwetEphm+TaCgXpo5ikQ7K4Wn0rLZ0F+
RXRYKSsXAlzFRGx0GVD7e1/8zYYZnv8IgOw5Ygt4sON0HLi95R4qM79sRj08GlYI
gnJaYWEmD2kCI0Q5s3pWewbIbLLoD2kiGpTqN0wIbQ==
-----END CERTIFICATE-----
