Certificate:
    Data:
        Version: 3 (0x2)
        Serial Number: 3 (0x3)
    Signature Algorithm: sha256WithRSAEncryption
        Issuer: C=DE, O=Red Hat IdM, OU=Custodia, CN=Custodia Test CA
        Validity
            Not Before: Apr 29 18:01:24 2016 GMT
            Not After : Apr 29 18:01:24 2017 GMT
        Subject: C=DE, O=Red Hat IdM, OU=Custodia, CN=client
        Subject Public Key Info:
            Public Key Algorithm: rsaEncryption
                Public-Key: (2048 bit)
                Modulus:
                    00:a3:61:73:31:51:5c:7e:79:66:7a:19:6d:3a:7b:
                    3d:1d:98:41:39:7d:69:16:71:7c:92:bd:02:30:f0:
                    f2:3e:83:d5:f0:a2:62:53:0e:d3:ba:66:53:8e:f0:
                    39:0b:4d:59:b5:ea:41:05:6b:e8:5c:17:a6:41:63:
                    1c:62:04:38:2a:00:83:5f:d0:6c:36:55:3d:b4:a9:
                    d5:63:91:6b:51:e2:ef:03:05:80:39:65:f9:3a:cb:
                    0e:1c:ac:ea:26:63:f2:d2:d4:ce:32:41:1d:ba:33:
                    f1:cc:d0:17:5c:97:c3:8b:ef:8c:e4:86:1e:c1:cf:
                    fd:35:a3:a1:8c:66:83:3e:36:5d:97:11:08:cb:7c:
                    a2:6d:0d:6b:3e:1b:93:e8:a0:e1:1b:32:9a:58:38:
                    52:15:84:cc:6a:04:15:a9:21:03:52:7f:8f:2b:e5:
                    32:59:f1:5d:05:86:d3:e1:c8:0b:c2:b8:19:a5:1d:
                    53:be:ba:92:e3:83:cd:fb:d4:82:d1:16:17:37:55:
                    c2:c5:eb:85:f4:9d:fe:33:f8:fc:8d:a2:bf:dc:d6:
                    9c:47:f4:00:61:50:56:6d:e9:46:0a:da:9d:33:cd:
                    ab:79:88:dc:ea:75:b6:c6:31:9b:cc:a9:99:05:98:
                    60:06:b5:57:b2:3e:7f:2b:78:00:94:87:c6:30:7b:
                    f1:81
                Exponent: 65537 (0x10001)
        X509v3 extensions:
            X509v3 Basic Constraints: critical
                CA:FALSE
            X509v3 Key Usage: critical
                Digital Signature
            X509v3 Extended Key Usage: critical
                TLS Web Client Authentication
            X509v3 Subject Key Identifier:
                C2:D8:C7:E8:67:B4:B8:6F:18:53:C8:2D:37:23:42:36:02:43:D3:58
            X509v3 Authority Key Identifier:
                keyid:96:B7:D6:4B:E0:FD:BA:FB:99:2A:A2:45:57:CF:A3:FD:BF:40:50:15

    Signature Algorithm: sha256WithRSAEncryption
         55:3f:11:c4:16:dc:01:e9:b1:d0:fc:e8:f5:bf:55:63:21:b9:
         a7:2e:81:63:fd:56:0b:ac:1f:38:39:3c:fd:24:3d:08:39:29:
         37:d0:79:f1:4f:71:4f:e3:10:35:f2:70:fe:78:a3:d9:31:7f:
         cc:d5:46:49:13:80:8d:e6:2a:d0:15:08:88:9f:ff:8e:c3:b4:
         d2:bd:b3:7e:b9:af:0a:3e:ba:36:0f:bb:59:3a:b1:35:b3:53:
         c5:fb:46:30:be:e6:bc:89:af:66:01:99:67:df:cd:a0:53:17:
         39:9e:29:b1:c1:ba:ce:2a:28:9b:7c:fd:d8:a1:31:94:54:d5:
         c4:a8:80:38:0f:1a:f9:55:35:fc:05:9a:f6:ce:3c:78:47:1a:
         4a:71:db:8f:f7:4b:35:f1:08:f2:0f:19:a4:20:09:39:c5:21:
         11:a0:28:c0:c4:ed:b9:33:9d:45:ad:47:69:83:ca:64:77:77:
         ba:de:9d:02:58:f9:c2:5c:f8:10:7b:aa:ce:38:04:0f:5e:cd:
         38:f1:4b:e3:35:51:b3:c3:6e:bf:e6:1e:40:5f:de:d5:b4:f4:
         6b:9a:ca:65:eb:3e:67:4b:ba:2c:26:16:c7:f9:ef:e4:6c:84:
         f2:91:e1:9b:f4:b8:76:75:64:aa:13:95:39:80:28:d1:30:be:
         7d:12:3d:08
-----BEGIN CERTIFICATE-----
MIIDizCCAnOgAwIBAgIBAzANBgkqhkiG9w0BAQsFADBRMQswCQYDVQQGEwJERTEU
MBIGA1UECgwLUmVkIEhhdCBJZE0xETAPBgNVBAsMCEN1c3RvZGlhMRkwFwYDVQQD
DBBDdXN0b2RpYSBUZXN0IENBMB4XDTE2MDQyOTE4MDEyNFoXDTE3MDQyOTE4MDEy
NFowRzELMAkGA1UEBhMCREUxFDASBgNVBAoMC1JlZCBIYXQgSWRNMREwDwYDVQQL
DAhDdXN0b2RpYTEPMA0GA1UEAwwGY2xpZW50MIIBIjANBgkqhkiG9w0BAQEFAAOC
AQ8AMIIBCgKCAQEAo2FzMVFcfnlmehltOns9HZhBOX1pFnF8kr0CMPDyPoPV8KJi
Uw7TumZTjvA5C01ZtepBBWvoXBemQWMcYgQ4KgCDX9BsNlU9tKnVY5FrUeLvAwWA
OWX5OssOHKzqJmPy0tTOMkEdujPxzNAXXJfDi++M5IYewc/9NaOhjGaDPjZdlxEI
y3yibQ1rPhuT6KDhGzKaWDhSFYTMagQVqSEDUn+PK+UyWfFdBYbT4cgLwrgZpR1T
vrqS44PN+9SC0RYXN1XCxeuF9J3+M/j8jaK/3NacR/QAYVBWbelGCtqdM82reYjc
6nW2xjGbzKmZBZhgBrVXsj5/K3gAlIfGMHvxgQIDAQABo3gwdjAMBgNVHRMBAf8E
AjAAMA4GA1UdDwEB/wQEAwIHgDAWBgNVHSUBAf8EDDAKBggrBgEFBQcDAjAdBgNV
HQ4EFgQUwtjH6Ge0uG8YU8gtNyNCNgJD01gwHwYDVR0jBBgwFoAUlrfWS+D9uvuZ
KqJFV8+j/b9AUBUwDQYJKoZIhvcNAQELBQADggEBAFU/EcQW3AHpsdD86PW/VWMh
uacugWP9VgusHzg5PP0kPQg5KTfQefFPcU/jEDXycP54o9kxf8zVRkkTgI3mKtAV
CIif/47DtNK9s365rwo+ujYPu1k6sTWzU8X7RjC+5ryJr2YBmWffzaBTFzmeKbHB
us4qKJt8/dihMZRU1cSogDgPGvlVNfwFmvbOPHhHGkpx24/3SzXxCPIPGaQgCTnF
IRGgKMDE7bkznUWtR2mDymR3d7renQJY+cJc+BB7qs44BA9ezTjxS+M1UbPDbr/m
HkBf3tW09GuaymXrPmdLuiwmFsf57+RshPKR4Zv0uHZ1ZKoTlTmAKNEwvn0SPQg=
-----END CERTIFICATE-----
