Certificate:
    Data:
        Version: 3 (0x2)
        Serial Number: 1 (0x1)
    Signature Algorithm: sha256WithRSAEncryption
        Issuer: C=DE, O=Red Hat IdM, OU=Custodia, CN=Custodia Test CA
        Validity
            Not Before: Feb 28 13:18:34 2017 GMT
            Not After : Feb 28 13:18:34 2021 GMT
        Subject: C=DE, O=Red Hat IdM, OU=Custodia, CN=Custodia Test CA
        Subject Public Key Info:
            Public Key Algorithm: rsaEncryption
                Public-Key: (2048 bit)
                Modulus:
                    00:dc:45:40:69:a7:ae:12:d2:de:e5:95:51:57:60:
                    4f:de:cc:94:1b:c6:8e:8a:5c:89:d9:d3:11:38:a4:
                    98:99:69:72:30:73:2d:a3:df:15:8c:27:1a:53:5d:
                    a8:f1:b8:05:f5:d7:4f:13:e9:0a:fd:b5:27:64:7f:
                    9f:3a:34:e8:33:9e:96:d1:79:a5:06:d1:0e:1c:b5:
                    fa:f9:96:09:58:f5:0e:8a:b9:2d:38:03:90:3f:30:
                    37:5b:68:3e:13:50:c4:42:8c:08:82:11:17:a9:4b:
                    c2:7b:bc:26:54:a1:3b:3a:62:1f:b5:7e:f3:a6:7f:
                    28:43:8f:83:1e:b2:a7:e7:b8:98:54:dc:8b:f2:9f:
                    a6:c6:52:c2:0e:2f:91:ea:b4:6b:d7:ab:38:7d:37:
                    f4:9b:a4:a7:43:4e:b6:10:fb:f6:dd:f2:e7:d5:7d:
                    6e:16:60:f7:86:92:60:57:77:6a:ca:f8:f4:2e:fe:
                    dd:31:db:45:38:76:a0:67:66:f7:a9:d3:34:4c:dd:
                    de:51:2e:29:e5:e1:cf:02:b3:db:4b:4d:9c:a7:2a:
                    56:43:b9:10:46:4c:a3:66:91:b9:1f:bd:55:25:0e:
                    5a:81:9d:cc:84:e4:4a:8e:31:59:1b:43:da:67:9b:
                    b0:cb:15:d2:2d:14:9e:18:2e:69:f2:99:bb:ff:79:
                    93:fd
                Exponent: 65537 (0x10001)
        X509v3 extensions:
            X509v3 Basic Constraints: critical
                CA:TRUE, pathlen:0
            X509v3 Key Usage: critical
                Certificate Sign, CRL Sign
            X509v3 Extended Key Usage: critical
                TLS Web Server Authentication
            X509v3 Subject Key Identifier: 
                50:56:9F:AA:F7:7B:4D:A5:63:D5:B1:19:B7:26:AE:D3:56:17:F4:C1
            X509v3 Authority Key Identifier: 
                keyid:50:56:9F:AA:F7:7B:4D:A5:63:D5:B1:19:B7:26:AE:D3:56:17:F4:C1

    Signature Algorithm: sha256WithRSAEncryption
         51:ac:c0:39:1e:e2:7d:4e:f7:59:0e:75:79:2b:f5:ad:a7:bd:
         e0:e0:22:74:09:fd:bc:f6:e0:a1:05:58:4c:4e:da:20:87:d4:
         21:fc:7c:38:f1:f2:ca:79:61:8d:20:d5:db:0c:38:e7:7f:2f:
         54:a4:f6:b1:e6:d6:63:57:c9:61:95:ed:34:4b:3f:dc:31:32:
         72:70:4e:2e:0a:42:73:e0:af:61:b6:f4:2d:2c:97:83:95:66:
         96:8d:0e:b9:30:72:8a:2b:24:f1:86:73:02:6b:cb:14:96:43:
         20:c7:25:65:18:a0:ee:b6:6f:66:f7:3f:f4:30:37:42:66:99:
         d2:70:46:ed:21:e3:bc:bf:07:59:c4:8c:62:f9:af:e7:e5:95:
         01:9b:12:90:ce:26:c9:56:1d:5e:5b:4a:7d:10:0a:1d:42:1f:
         34:94:77:a4:b0:58:61:1a:c4:98:85:6d:06:c5:3a:e1:51:bb:
         ce:6e:ba:33:ef:d9:81:28:63:a7:33:ba:63:9c:45:2b:43:52:
         70:6f:94:b0:02:e2:7d:87:48:79:61:7e:e7:d6:00:f8:9d:f4:
         0d:20:fc:06:a4:e2:d9:60:0c:21:06:2f:dc:3f:39:97:70:a7:
         1a:07:a7:14:65:16:2f:eb:b9:77:60:2a:59:79:9b:73:6a:62:
         69:7f:5d:6d
-----BEGIN CERTIFICATE-----
MIIDmzCCAoOgAwIBAgIBATANBgkqhkiG9w0BAQsFADBRMQswCQYDVQQGEwJERTEU
MBIGA1UECgwLUmVkIEhhdCBJZE0xETAPBgNVBAsMCEN1c3RvZGlhMRkwFwYDVQQD
DBBDdXN0b2RpYSBUZXN0IENBMB4XDTE3MDIyODEzMTgzNFoXDTIxMDIyODEzMTgz
NFowUTELMAkGA1UEBhMCREUxFDASBgNVBAoMC1JlZCBIYXQgSWRNMREwDwYDVQQL
DAhDdXN0b2RpYTEZMBcGA1UEAwwQQ3VzdG9kaWEgVGVzdCBDQTCCASIwDQYJKoZI
hvcNAQEBBQADggEPADCCAQoCggEBANxFQGmnrhLS3uWVUVdgT97MlBvGjopcidnT
ETikmJlpcjBzLaPfFYwnGlNdqPG4BfXXTxPpCv21J2R/nzo06DOeltF5pQbRDhy1
+vmWCVj1Doq5LTgDkD8wN1toPhNQxEKMCIIRF6lLwnu8JlShOzpiH7V+86Z/KEOP
gx6yp+e4mFTci/KfpsZSwg4vkeq0a9erOH039Jukp0NOthD79t3y59V9bhZg94aS
YFd3asr49C7+3THbRTh2oGdm96nTNEzd3lEuKeXhzwKz20tNnKcqVkO5EEZMo2aR
uR+9VSUOWoGdzITkSo4xWRtD2mebsMsV0i0UnhguafKZu/95k/0CAwEAAaN+MHww
EgYDVR0TAQH/BAgwBgEB/wIBADAOBgNVHQ8BAf8EBAMCAQYwFgYDVR0lAQH/BAww
CgYIKwYBBQUHAwEwHQYDVR0OBBYEFFBWn6r3e02lY9WxGbcmrtNWF/TBMB8GA1Ud
IwQYMBaAFFBWn6r3e02lY9WxGbcmrtNWF/TBMA0GCSqGSIb3DQEBCwUAA4IBAQBR
rMA5HuJ9TvdZDnV5K/Wtp73g4CJ0Cf289uChBVhMTtogh9Qh/Hw48fLKeWGNINXb
DDjnfy9UpPax5tZjV8lhle00Sz/cMTJycE4uCkJz4K9htvQtLJeDlWaWjQ65MHKK
KyTxhnMCa8sUlkMgxyVlGKDutm9m9z/0MDdCZpnScEbtIeO8vwdZxIxi+a/n5ZUB
mxKQzibJVh1eW0p9EAodQh80lHeksFhhGsSYhW0GxTrhUbvObroz79mBKGOnM7pj
nEUrQ1Jwb5SwAuJ9h0h5YX7n1gD4nfQNIPwGpOLZYAwhBi/cPzmXcKcaB6cUZRYv
67l3YCpZeZtzamJpf11t
-----END CERTIFICATE-----
