Certificate:
    Data:
        Version: 3 (0x2)
        Serial Number: 3 (0x3)
    Signature Algorithm: sha256WithRSAEncryption
        Issuer: C=DE, O=Red Hat IdM, OU=Custodia, CN=Custodia Test CA
        Validity
            Not Before: Feb 28 13:18:34 2017 GMT
            Not After : Feb 28 13:18:34 2021 GMT
        Subject: C=DE, O=Red Hat IdM, OU=Custodia, CN=client
        Subject Public Key Info:
            Public Key Algorithm: rsaEncryption
                Public-Key: (2048 bit)
                Modulus:
                    00:d2:85:68:58:7b:ed:0c:04:52:1e:29:ed:31:e6:
                    b5:5d:da:b0:59:94:5c:bd:9a:64:80:57:0f:85:e3:
                    c3:fb:3a:ee:a1:40:85:e6:8e:ee:c6:78:a2:b5:8c:
                    5f:5c:2c:1a:a1:78:f3:fd:4e:dd:6c:8e:e8:6a:d2:
                    8a:37:ef:d7:16:ab:2e:82:3e:25:64:7e:0c:b9:ed:
                    d1:0f:b2:f3:12:27:54:64:03:aa:93:da:b7:f8:35:
                    4b:df:42:d7:c0:88:d2:63:5e:77:62:fb:f4:f1:22:
                    62:5a:88:16:07:c7:19:86:39:20:ea:a8:ef:21:e7:
                    73:29:2b:33:9c:f7:24:95:80:5d:7b:9c:18:34:6e:
                    5d:f8:5b:44:97:f6:10:52:0e:ab:01:8f:21:87:d7:
                    46:cf:0a:8e:c8:cd:f2:d2:0c:96:37:a9:47:c7:9a:
                    17:48:11:5a:97:5d:69:f8:cf:99:cc:7d:c0:97:39:
                    24:0f:06:c7:3c:b4:38:70:45:b0:14:ff:20:4b:74:
                    11:eb:e1:43:87:c1:ce:d0:54:d8:38:8f:fd:f7:de:
                    62:ee:af:d2:dc:a4:85:d8:19:1f:66:b3:c2:f1:87:
                    31:21:34:e2:b9:0f:a0:9e:81:d2:51:49:92:94:ab:
                    cd:d0:30:fe:d4:61:75:53:1a:b9:02:88:e1:8f:e3:
                    b1:3b
                Exponent: 65537 (0x10001)
        X509v3 extensions:
            X509v3 Basic Constraints: critical
                CA:FALSE
            X509v3 Key Usage: critical
                Digital Signature
            X509v3 Extended Key Usage: critical
                TLS Web Client Authentication
            X509v3 Subject Key Identifier: 
                8A:96:CB:7B:0C:FF:80:EE:04:01:CD:A6:6A:AE:EA:B6:A7:8E:E6:DF
            X509v3 Authority Key Identifier: 
                keyid:50:56:9F:AA:F7:7B:4D:A5:63:D5:B1:19:B7:26:AE:D3:56:17:F4:C1

    Signature Algorithm: sha256WithRSAEncryption
         39:5a:bc:d0:d1:bc:8b:c4:a2:50:a3:d9:7a:14:ca:fa:52:f2:
         08:ec:1f:39:78:69:dd:88:15:15:be:91:7d:d8:20:ae:c1:62:
         0b:71:09:9c:28:41:db:0d:a7:6e:2c:84:ac:4b:62:a8:d4:73:
         11:a6:45:58:12:23:a4:db:ed:b9:4c:f4:95:a3:14:b3:28:d2:
         8e:29:a0:f0:90:63:62:53:4d:85:99:13:2b:14:67:1c:30:69:
         52:27:5a:9c:44:89:30:b3:d8:45:82:9a:76:24:65:08:38:2b:
         37:af:9a:36:c3:d4:c4:30:8d:41:2f:16:a8:bb:d1:0a:69:a1:
         44:32:a1:22:ea:6f:6a:58:bf:51:26:43:9d:a9:4f:f2:43:69:
         d2:b5:55:1a:3c:18:99:20:8c:86:de:96:28:ed:58:7c:1f:19:
         45:39:a0:c6:61:f2:04:6d:15:68:3a:2d:ff:2b:7f:7a:aa:0b:
         6e:67:ef:1f:ac:ca:26:9d:1d:f9:de:3e:0c:16:8d:38:5e:19:
         fe:03:38:ed:ff:ce:1f:af:ec:eb:3e:77:03:f2:d4:66:43:29:
         b6:69:5e:0b:d8:5e:dc:7c:8c:c8:8b:54:7a:11:cc:c5:b2:c3:
         d3:a6:f6:0f:8b:4c:3a:16:56:13:af:fb:87:97:6c:5e:25:58:
         70:1f:f4:21
-----BEGIN CERTIFICATE-----
MIIDizCCAnOgAwIBAgIBAzANBgkqhkiG9w0BAQsFADBRMQswCQYDVQQGEwJERTEU
MBIGA1UECgwLUmVkIEhhdCBJZE0xETAPBgNVBAsMCEN1c3RvZGlhMRkwFwYDVQQD
DBBDdXN0b2RpYSBUZXN0IENBMB4XDTE3MDIyODEzMTgzNFoXDTIxMDIyODEzMTgz
NFowRzELMAkGA1UEBhMCREUxFDASBgNVBAoMC1JlZCBIYXQgSWRNMREwDwYDVQQL
DAhDdXN0b2RpYTEPMA0GA1UEAwwGY2xpZW50MIIBIjANBgkqhkiG9w0BAQEFAAOC
AQ8AMIIBCgKCAQEA0oVoWHvtDARSHintMea1XdqwWZRcvZpkgFcPhePD+zruoUCF
5o7uxniitYxfXCwaoXjz/U7dbI7oatKKN+/XFqsugj4lZH4Mue3RD7LzEidUZAOq
k9q3+DVL30LXwIjSY153Yvv08SJiWogWB8cZhjkg6qjvIedzKSsznPcklYBde5wY
NG5d+FtEl/YQUg6rAY8hh9dGzwqOyM3y0gyWN6lHx5oXSBFal11p+M+ZzH3Alzkk
DwbHPLQ4cEWwFP8gS3QR6+FDh8HO0FTYOI/9995i7q/S3KSF2BkfZrPC8YcxITTi
uQ+gnoHSUUmSlKvN0DD+1GF1Uxq5Aojhj+OxOwIDAQABo3gwdjAMBgNVHRMBAf8E
AjAAMA4GA1UdDwEB/wQEAwIHgDAWBgNVHSUBAf8EDDAKBggrBgEFBQcDAjAdBgNV
HQ4EFgQUipbLewz/gO4EAc2maq7qtqeO5t8wHwYDVR0jBBgwFoAUUFafqvd7TaVj
1bEZtyau01YX9MEwDQYJKoZIhvcNAQELBQADggEBADlavNDRvIvEolCj2XoUyvpS
8gjsHzl4ad2IFRW+kX3YIK7BYgtxCZwoQdsNp24shKxLYqjUcxGmRVgSI6Tb7blM
9JWjFLMo0o4poPCQY2JTTYWZEysUZxwwaVInWpxEiTCz2EWCmnYkZQg4KzevmjbD
1MQwjUEvFqi70QppoUQyoSLqb2pYv1EmQ52pT/JDadK1VRo8GJkgjIbelijtWHwf
GUU5oMZh8gRtFWg6Lf8rf3qqC25n7x+syiadHfnePgwWjTheGf4DOO3/zh+v7Os+
dwPy1GZDKbZpXgvYXtx8jMiLVHoRzMWyw9Om9g+LTDoWVhOv+4eXbF4lWHAf9CE=
-----END CERTIFICATE-----
