Certificate:
    Data:
        Version: 3 (0x2)
        Serial Number: 3 (0x3)
    Signature Algorithm: sha256WithRSAEncryption
        Issuer: C=DE, O=Red Hat IdM, OU=Custodia, CN=Custodia Test CA
        Validity
            Not Before: Aug  2 12:07:24 2017 GMT
            Not After : Aug  2 12:07:24 2021 GMT
        Subject: C=DE, O=Red Hat IdM, OU=Custodia, CN=client
        Subject Public Key Info:
            Public Key Algorithm: rsaEncryption
                Public-Key: (2048 bit)
                Modulus:
                    00:f1:6d:7b:51:60:d3:bf:2d:61:60:b3:52:64:90:
                    69:f8:12:8b:6f:13:b5:45:64:8d:a8:9f:a9:2e:9a:
                    4f:f3:c9:6d:46:e9:01:ae:94:5c:7f:35:51:fe:bd:
                    70:fc:02:9f:8c:03:6f:01:6c:87:83:a0:a1:a7:98:
                    ae:c1:d9:de:71:40:aa:e4:9e:b2:de:f9:33:9b:98:
                    d5:97:a2:81:32:6a:6b:d3:b3:1c:44:18:b1:60:33:
                    90:ba:47:79:ad:c6:1a:20:be:5f:26:ff:8a:d5:d9:
                    8f:df:b7:88:27:07:db:92:aa:e9:1f:de:a7:7d:73:
                    30:28:d3:b9:f1:db:f0:ce:b6:e3:53:18:c3:65:d2:
                    c0:52:db:89:d4:5e:04:de:1f:f2:2a:aa:c0:c1:89:
                    bc:16:c6:28:3f:d6:e7:c4:49:58:9c:01:1b:4a:2e:
                    eb:cd:97:b7:11:f9:7f:1f:e1:07:c3:dd:13:ef:09:
                    43:68:c7:b9:d7:f2:0e:4f:20:7a:4b:6e:32:2a:bd:
                    aa:15:58:28:3f:ec:67:b7:32:e3:87:7d:b5:14:23:
                    b6:b3:da:bf:36:8f:50:ad:67:ed:d7:27:df:c1:c8:
                    9f:6f:b0:f5:6c:7f:92:46:e5:8e:ca:ff:bd:e2:bf:
                    0d:2e:38:f9:07:77:f0:fa:af:12:11:dd:01:2b:9d:
                    c5:39
                Exponent: 65537 (0x10001)
        X509v3 extensions:
            X509v3 Basic Constraints: critical
                CA:FALSE
            X509v3 Key Usage: critical
                Digital Signature
            X509v3 Extended Key Usage: critical
                TLS Web Client Authentication
            X509v3 Subject Key Identifier: 
                BB:FB:44:B2:AC:D0:9C:1C:44:3B:6C:C3:2E:B6:C6:B2:CC:50:05:BB
            X509v3 Authority Key Identifier: 
                keyid:35:2F:B8:E1:7B:12:D5:34:CE:C0:76:69:94:A2:E2:E5:E9:17:7C:3D

    Signature Algorithm: sha256WithRSAEncryption
         54:e0:e5:0a:e5:f0:b6:4c:77:af:1d:1d:9c:3b:28:b7:6a:6a:
         87:f4:e2:d9:22:87:42:ee:d6:18:19:47:52:da:8a:0f:0b:d4:
         94:e3:25:4a:cd:5a:fc:63:3c:63:85:11:d6:d9:b8:fe:00:6e:
         d1:52:9c:ac:ac:89:72:2d:1a:53:20:b2:7e:ac:53:57:10:6f:
         c8:12:dd:d1:dc:c6:a7:ea:79:3a:b7:f7:42:c6:9c:d0:d1:82:
         0a:15:6b:fd:91:7e:d9:ac:e3:a7:15:4b:cd:93:8e:d0:12:d2:
         7d:bf:7b:0b:8b:e2:8d:ba:54:67:d4:e8:7c:62:21:05:9d:85:
         a7:26:a5:fa:27:03:dd:34:82:73:56:3b:32:91:a1:10:d2:2a:
         88:e9:22:c5:27:2e:9f:71:48:1f:0b:f7:7a:be:80:a5:4d:d9:
         7b:09:da:35:21:f2:10:d1:9e:4e:dc:01:51:da:71:fa:6f:7c:
         eb:df:ea:d1:4c:14:1b:87:ee:64:3f:a6:d3:6d:68:09:32:8f:
         51:d6:f6:5e:88:d8:e8:2a:8c:1f:ca:6d:ef:3b:2e:f1:ad:97:
         64:f0:d6:0e:30:da:40:6e:f6:ec:a0:44:4b:c1:5c:6d:f5:74:
         e7:db:66:7b:9b:2f:ee:99:1c:33:92:c6:53:30:16:c9:46:b3:
         14:bb:12:af
-----BEGIN CERTIFICATE-----
MIIDizCCAnOgAwIBAgIBAzANBgkqhkiG9w0BAQsFADBRMQswCQYDVQQGEwJERTEU
MBIGA1UECgwLUmVkIEhhdCBJZE0xETAPBgNVBAsMCEN1c3RvZGlhMRkwFwYDVQQD
DBBDdXN0b2RpYSBUZXN0IENBMB4XDTE3MDgwMjEyMDcyNFoXDTIxMDgwMjEyMDcy
NFowRzELMAkGA1UEBhMCREUxFDASBgNVBAoMC1JlZCBIYXQgSWRNMREwDwYDVQQL
DAhDdXN0b2RpYTEPMA0GA1UEAwwGY2xpZW50MIIBIjANBgkqhkiG9w0BAQEFAAOC
AQ8AMIIBCgKCAQEA8W17UWDTvy1hYLNSZJBp+BKLbxO1RWSNqJ+pLppP88ltRukB
rpRcfzVR/r1w/AKfjANvAWyHg6Chp5iuwdnecUCq5J6y3vkzm5jVl6KBMmpr07Mc
RBixYDOQukd5rcYaIL5fJv+K1dmP37eIJwfbkqrpH96nfXMwKNO58dvwzrbjUxjD
ZdLAUtuJ1F4E3h/yKqrAwYm8FsYoP9bnxElYnAEbSi7rzZe3Efl/H+EHw90T7wlD
aMe51/IOTyB6S24yKr2qFVgoP+xntzLjh321FCO2s9q/No9QrWft1yffwcifb7D1
bH+SRuWOyv+94r8NLjj5B3fw+q8SEd0BK53FOQIDAQABo3gwdjAMBgNVHRMBAf8E
AjAAMA4GA1UdDwEB/wQEAwIHgDAWBgNVHSUBAf8EDDAKBggrBgEFBQcDAjAdBgNV
HQ4EFgQUu/tEsqzQnBxEO2zDLrbGssxQBbswHwYDVR0jBBgwFoAUNS+44XsS1TTO
wHZplKLi5ekXfD0wDQYJKoZIhvcNAQELBQADggEBAFTg5Qrl8LZMd68dHZw7KLdq
aof04tkih0Lu1hgZR1Laig8L1JTjJUrNWvxjPGOFEdbZuP4AbtFSnKysiXItGlMg
sn6sU1cQb8gS3dHcxqfqeTq390LGnNDRggoVa/2Rftms46cVS82TjtAS0n2/ewuL
4o26VGfU6HxiIQWdhacmpfonA900gnNWOzKRoRDSKojpIsUnLp9xSB8L93q+gKVN
2XsJ2jUh8hDRnk7cAVHacfpvfOvf6tFMFBuH7mQ/ptNtaAkyj1HW9l6I2OgqjB/K
be87LvGtl2Tw1g4w2kBu9uygREvBXG31dOfbZnubL+6ZHDOSxlMwFslGsxS7Eq8=
-----END CERTIFICATE-----
