Certificate:
    Data:
        Version: 3 (0x2)
        Serial Number: 1 (0x1)
    Signature Algorithm: sha256WithRSAEncryption
        Issuer: C=DE, O=Red Hat IdM, OU=Custodia, CN=Custodia Test CA
        Validity
            Not Before: Aug  2 12:07:24 2017 GMT
            Not After : Aug  2 12:07:24 2021 GMT
        Subject: C=DE, O=Red Hat IdM, OU=Custodia, CN=Custodia Test CA
        Subject Public Key Info:
            Public Key Algorithm: rsaEncryption
                Public-Key: (2048 bit)
                Modulus:
                    00:bf:3d:94:b7:d2:e3:a5:20:8d:37:e5:22:56:4d:
                    4d:f5:68:3c:dd:b2:50:ae:65:7b:8d:a5:8a:cf:08:
                    05:7c:a7:dc:ab:bb:e9:69:1a:b3:19:f7:ff:52:f4:
                    f3:7d:e5:f0:cd:af:f7:2c:1b:e1:66:b6:1c:46:76:
                    69:c8:0c:73:0a:27:1e:8a:5b:9c:ad:97:61:6e:ac:
                    61:4a:ba:51:d8:3b:81:24:05:14:fb:22:36:ab:2d:
                    22:b5:48:89:e2:33:b0:5b:c6:d7:c2:9b:46:6f:a8:
                    0c:d8:17:3b:55:9c:87:0d:51:85:1c:7c:69:c5:c3:
                    4e:5e:e0:f6:d3:7b:48:00:ca:42:29:3a:f4:40:77:
                    3f:90:dc:08:e0:55:cd:de:cf:c8:cd:e3:7c:0d:30:
                    87:57:4e:69:5e:f4:84:80:e3:91:22:30:cd:88:ed:
                    0f:61:d5:c3:46:84:96:81:e7:f5:d8:7c:92:d7:5d:
                    a5:28:34:8f:19:c2:d2:07:ff:92:09:cf:7a:46:1a:
                    81:ac:b4:33:25:4d:7c:58:e3:87:09:9b:17:17:6f:
                    45:9a:cc:8b:80:bc:0f:c9:41:ce:b9:59:55:cc:6b:
                    41:f4:ce:57:ad:2a:52:32:b4:61:95:e6:77:85:ba:
                    28:eb:1c:2a:54:1e:2a:99:4a:ed:b4:75:5c:e4:95:
                    54:2b
                Exponent: 65537 (0x10001)
        X509v3 extensions:
            X509v3 Basic Constraints: critical
                CA:TRUE, pathlen:0
            X509v3 Key Usage: critical
                Certificate Sign, CRL Sign
            X509v3 Extended Key Usage: critical
                TLS Web Server Authentication, TLS Web Client Authentication
            X509v3 Subject Key Identifier: 
                35:2F:B8:E1:7B:12:D5:34:CE:C0:76:69:94:A2:E2:E5:E9:17:7C:3D
            X509v3 Authority Key Identifier: 
                keyid:35:2F:B8:E1:7B:12:D5:34:CE:C0:76:69:94:A2:E2:E5:E9:17:7C:3D

    Signature Algorithm: sha256WithRSAEncryption
         1f:8b:e1:d6:6a:be:06:0b:bb:f0:55:a3:d1:9a:d0:1a:ae:64:
         fb:84:96:a7:76:17:ba:73:7a:fa:b7:83:65:a7:6c:c0:e2:aa:
         a6:35:1f:34:c6:0e:8d:a5:29:5d:d1:aa:24:96:46:97:49:dd:
         e6:6f:fb:3d:f4:af:6c:f1:12:f9:c3:4e:6a:4a:bf:82:36:1c:
         24:8e:e7:9c:30:72:24:e4:d3:d4:3b:a9:22:7c:9e:93:fe:8f:
         3d:95:2f:e6:8e:de:90:11:77:b8:b1:5b:8b:0f:99:40:7c:7a:
         ec:2b:9e:2e:fe:98:99:af:10:dd:92:ef:d8:3b:7b:31:f5:96:
         7f:2f:68:26:8f:c5:e1:fd:e8:de:f6:3a:9d:0e:7f:4a:fc:07:
         9f:7e:e9:70:42:60:a0:ad:12:b8:93:c8:b7:da:7f:68:d3:f4:
         18:3b:c3:1e:e0:0f:47:df:0b:88:05:3f:8c:b0:80:7e:be:99:
         df:5a:17:c7:3b:b2:d6:cd:54:25:e9:6e:ee:29:1d:6b:b3:d7:
         a4:cd:f8:49:5a:ec:05:e3:b4:14:b5:f1:3c:50:4f:66:17:0f:
         dd:59:dd:63:12:bb:f7:ae:c1:8b:25:df:b6:a5:f1:32:45:4f:
         45:e5:04:4e:a7:02:2a:ab:ff:35:a8:f9:95:87:8a:12:2e:b3:
         ed:45:71:cb
-----BEGIN CERTIFICATE-----
MIIDpzCCAo+gAwIBAgIBATANBgkqhkiG9w0BAQsFADBRMQswCQYDVQQGEwJERTEU
MBIGA1UECgwLUmVkIEhhdCBJZE0xETAPBgNVBAsMCEN1c3RvZGlhMRkwFwYDVQQD
DBBDdXN0b2RpYSBUZXN0IENBMB4XDTE3MDgwMjEyMDcyNFoXDTIxMDgwMjEyMDcy
NFowUTELMAkGA1UEBhMCREUxFDASBgNVBAoMC1JlZCBIYXQgSWRNMREwDwYDVQQL
DAhDdXN0b2RpYTEZMBcGA1UEAwwQQ3VzdG9kaWEgVGVzdCBDQTCCASIwDQYJKoZI
hvcNAQEBBQADggEPADCCAQoCggEBAL89lLfS46UgjTflIlZNTfVoPN2yUK5le42l
is8IBXyn3Ku76Wkasxn3/1L0833l8M2v9ywb4Wa2HEZ2acgMcwonHopbnK2XYW6s
YUq6Udg7gSQFFPsiNqstIrVIieIzsFvG18KbRm+oDNgXO1Wchw1RhRx8acXDTl7g
9tN7SADKQik69EB3P5DcCOBVzd7PyM3jfA0wh1dOaV70hIDjkSIwzYjtD2HVw0aE
loHn9dh8ktddpSg0jxnC0gf/kgnPekYagay0MyVNfFjjhwmbFxdvRZrMi4C8D8lB
zrlZVcxrQfTOV60qUjK0YZXmd4W6KOscKlQeKplK7bR1XOSVVCsCAwEAAaOBiTCB
hjASBgNVHRMBAf8ECDAGAQH/AgEAMA4GA1UdDwEB/wQEAwIBBjAgBgNVHSUBAf8E
FjAUBggrBgEFBQcDAQYIKwYBBQUHAwIwHQYDVR0OBBYEFDUvuOF7EtU0zsB2aZSi
4uXpF3w9MB8GA1UdIwQYMBaAFDUvuOF7EtU0zsB2aZSi4uXpF3w9MA0GCSqGSIb3
DQEBCwUAA4IBAQAfi+HWar4GC7vwVaPRmtAarmT7hJandhe6c3r6t4Nlp2zA4qqm
NR80xg6NpSld0aoklkaXSd3mb/s99K9s8RL5w05qSr+CNhwkjuecMHIk5NPUO6ki
fJ6T/o89lS/mjt6QEXe4sVuLD5lAfHrsK54u/piZrxDdku/YO3sx9ZZ/L2gmj8Xh
/eje9jqdDn9K/AeffulwQmCgrRK4k8i32n9o0/QYO8Me4A9H3wuIBT+MsIB+vpnf
WhfHO7LWzVQl6W7uKR1rs9ekzfhJWuwF47QUtfE8UE9mFw/dWd1jErv3rsGLJd+2
pfEyRU9F5QROpwIqq/81qPmVh4oSLrPtRXHL
-----END CERTIFICATE-----
