Certificate:
    Data:
        Version: 3 (0x2)
        Serial Number: 1 (0x1)
        Signature Algorithm: sha384WithRSAEncryption
        Issuer: C=DE, O=Red Hat IdM, OU=Custodia, CN=Custodia Test CA
        Validity
            Not Before: Sep 14 19:05:29 2022 GMT
            Not After : Sep 13 19:05:29 2027 GMT
        Subject: C=DE, O=Red Hat IdM, OU=Custodia, CN=Custodia Test CA
        Subject Public Key Info:
            Public Key Algorithm: rsaEncryption
                Public-Key: (3072 bit)
                Modulus:
                    00:db:8d:ca:5b:44:b6:27:2f:e7:f8:b5:1c:84:86:
                    b1:13:1e:98:c4:e7:40:ed:06:02:98:ad:b1:3f:4a:
                    97:d3:60:a6:19:b9:ec:26:71:ab:20:0a:8d:0d:9b:
                    60:11:89:87:8a:fa:88:4d:90:63:b9:cf:f4:5f:a7:
                    42:cc:8e:ab:48:39:7e:fc:e6:17:7e:c7:47:39:13:
                    24:88:44:22:17:0b:10:58:ba:eb:2a:bb:1d:92:f5:
                    f2:82:d0:e1:80:e7:75:cb:bb:64:7f:9d:cf:fd:6a:
                    1f:d9:bb:0c:5a:d9:48:2f:9e:05:7d:a1:16:c5:1b:
                    97:51:d5:70:71:1a:fc:47:74:78:60:fa:e2:42:03:
                    96:f4:39:74:d3:c9:cc:1c:0a:96:a3:fc:ac:a6:6e:
                    aa:6d:da:90:1d:7f:3b:d1:ea:d6:f8:07:6c:97:1c:
                    79:8d:30:e3:d7:f3:84:ac:b6:07:03:cf:b3:f0:5c:
                    05:c7:10:c0:41:39:d8:2d:d5:07:5d:2e:b5:e7:d7:
                    0e:1d:10:d9:78:5e:91:06:ba:1b:09:84:fd:84:55:
                    c2:8c:82:bc:57:55:a4:4a:34:64:06:0f:fc:59:9c:
                    1a:16:6f:92:dc:bc:44:89:43:0c:68:1b:a7:e2:7d:
                    96:44:18:6a:d1:53:97:bb:32:16:a7:5c:de:4e:bd:
                    b8:cb:c2:b5:23:00:fa:73:78:16:fd:0c:73:a2:74:
                    6a:d3:c5:7a:71:2e:0e:90:33:7e:b2:ac:97:55:8d:
                    3b:e2:a9:bd:2d:00:05:76:16:2d:45:57:11:c2:a4:
                    cb:a8:75:ff:18:60:49:e4:c0:d5:0c:7f:3e:70:ba:
                    79:e2:78:ac:25:0b:70:c3:6c:db:78:b6:c9:c4:02:
                    c8:37:69:df:33:5d:11:0f:34:36:be:9a:b6:f1:77:
                    25:2b:e4:fe:f7:55:38:dd:17:92:61:5d:9a:a9:1b:
                    36:cb:8c:0e:e6:4d:48:13:7f:95:5b:6d:08:b4:02:
                    dc:c2:7b:75:28:f6:86:46:c2:b1
                Exponent: 65537 (0x10001)
        X509v3 extensions:
            X509v3 Basic Constraints: critical
                CA:TRUE, pathlen:0
            X509v3 Key Usage: critical
                Certificate Sign, CRL Sign
            X509v3 Extended Key Usage: critical
                TLS Web Server Authentication, TLS Web Client Authentication
            X509v3 Subject Key Identifier: 
                54:17:6B:06:64:74:EA:79:31:1D:0C:B8:59:8D:74:FA:B8:D0:20:C1
            X509v3 Authority Key Identifier: 
                54:17:6B:06:64:74:EA:79:31:1D:0C:B8:59:8D:74:FA:B8:D0:20:C1
    Signature Algorithm: sha384WithRSAEncryption
    Signature Value:
        8a:2e:77:99:95:d4:64:19:5b:1e:18:c9:fe:07:fe:81:b1:40:
        8e:8f:fb:92:8c:63:78:bc:1b:d5:4e:56:b8:60:25:0f:22:e5:
        9d:0b:cc:37:c3:58:41:ba:ea:0d:7f:39:93:4f:8d:23:7b:94:
        9b:b9:d0:c4:5d:29:84:0d:af:d8:0d:80:dc:92:79:1c:b0:0f:
        69:d2:2e:94:12:36:43:28:40:67:f2:64:50:80:f6:ab:4d:0e:
        5f:28:7a:00:ae:34:20:95:85:84:5f:e2:73:d5:ec:83:2e:b8:
        d6:63:8a:a7:dc:12:7a:c7:1d:53:89:3f:62:5a:b5:16:d9:b8:
        5a:ed:a1:cd:ab:80:9d:1e:67:4f:18:d3:5e:01:38:9e:1a:7b:
        d1:1c:46:26:3c:bb:6f:ab:49:2f:8b:d7:25:7c:b7:64:c4:2f:
        d0:a8:fa:d8:0f:b3:11:81:75:23:04:0a:ed:35:14:26:9b:42:
        1f:3e:97:17:3d:4c:b3:72:ec:9f:4f:d5:c1:85:f8:c6:88:ba:
        88:3b:43:77:4d:5a:ae:c7:69:77:89:6d:a9:1b:41:9b:72:a5:
        43:0a:32:9e:c7:3c:14:bd:6f:ec:6a:e5:0d:aa:3e:bf:3a:3d:
        61:01:53:6b:85:c9:5d:cb:68:3d:12:61:e8:ac:ef:98:29:8d:
        7d:25:b6:b2:a5:53:2a:09:d6:ed:8f:bf:5e:42:05:ba:87:61:
        96:dc:22:78:04:07:86:88:3a:bf:90:75:a8:cc:b2:fa:4e:c0:
        61:ff:16:b5:74:26:cf:93:cb:b9:2e:ac:53:b5:59:75:8a:77:
        71:61:a6:a9:ec:ec:b2:8d:33:c1:a9:70:3f:0f:a1:2e:ad:1b:
        03:22:f6:09:21:a6:64:9d:ff:f9:0a:16:09:0c:02:e7:24:08:
        4f:df:a0:6c:26:46:35:8f:98:fc:05:a5:a5:c3:60:17:a2:ed:
        74:d8:d2:92:cd:f4:72:4d:d7:07:21:ab:4c:fe:3b:8b:28:c4:
        7f:0b:7b:f8:17:b0
-----BEGIN CERTIFICATE-----
MIIEpzCCAw+gAwIBAgIBATANBgkqhkiG9w0BAQwFADBRMQswCQYDVQQGEwJERTEU
MBIGA1UECgwLUmVkIEhhdCBJZE0xETAPBgNVBAsMCEN1c3RvZGlhMRkwFwYDVQQD
DBBDdXN0b2RpYSBUZXN0IENBMB4XDTIyMDkxNDE5MDUyOVoXDTI3MDkxMzE5MDUy
OVowUTELMAkGA1UEBhMCREUxFDASBgNVBAoMC1JlZCBIYXQgSWRNMREwDwYDVQQL
DAhDdXN0b2RpYTEZMBcGA1UEAwwQQ3VzdG9kaWEgVGVzdCBDQTCCAaIwDQYJKoZI
hvcNAQEBBQADggGPADCCAYoCggGBANuNyltEticv5/i1HISGsRMemMTnQO0GApit
sT9Kl9Ngphm57CZxqyAKjQ2bYBGJh4r6iE2QY7nP9F+nQsyOq0g5fvzmF37HRzkT
JIhEIhcLEFi66yq7HZL18oLQ4YDndcu7ZH+dz/1qH9m7DFrZSC+eBX2hFsUbl1HV
cHEa/Ed0eGD64kIDlvQ5dNPJzBwKlqP8rKZuqm3akB1/O9Hq1vgHbJcceY0w49fz
hKy2BwPPs/BcBccQwEE52C3VB10utefXDh0Q2XhekQa6GwmE/YRVwoyCvFdVpEo0
ZAYP/FmcGhZvkty8RIlDDGgbp+J9lkQYatFTl7syFqdc3k69uMvCtSMA+nN4Fv0M
c6J0atPFenEuDpAzfrKsl1WNO+KpvS0ABXYWLUVXEcKky6h1/xhgSeTA1Qx/PnC6
eeJ4rCULcMNs23i2ycQCyDdp3zNdEQ80Nr6atvF3JSvk/vdVON0XkmFdmqkbNsuM
DuZNSBN/lVttCLQC3MJ7dSj2hkbCsQIDAQABo4GJMIGGMBIGA1UdEwEB/wQIMAYB
Af8CAQAwDgYDVR0PAQH/BAQDAgEGMCAGA1UdJQEB/wQWMBQGCCsGAQUFBwMBBggr
BgEFBQcDAjAdBgNVHQ4EFgQUVBdrBmR06nkxHQy4WY10+rjQIMEwHwYDVR0jBBgw
FoAUVBdrBmR06nkxHQy4WY10+rjQIMEwDQYJKoZIhvcNAQEMBQADggGBAIoud5mV
1GQZWx4Yyf4H/oGxQI6P+5KMY3i8G9VOVrhgJQ8i5Z0LzDfDWEG66g1/OZNPjSN7
lJu50MRdKYQNr9gNgNySeRywD2nSLpQSNkMoQGfyZFCA9qtNDl8oegCuNCCVhYRf
4nPV7IMuuNZjiqfcEnrHHVOJP2JatRbZuFrtoc2rgJ0eZ08Y014BOJ4ae9EcRiY8
u2+rSS+L1yV8t2TEL9Co+tgPsxGBdSMECu01FCabQh8+lxc9TLNy7J9P1cGF+MaI
uog7Q3dNWq7HaXeJbakbQZtypUMKMp7HPBS9b+xq5Q2qPr86PWEBU2uFyV3LaD0S
Yeis75gpjX0ltrKlUyoJ1u2Pv15CBbqHYZbcIngEB4aIOr+QdajMsvpOwGH/FrV0
Js+Ty7kurFO1WXWKd3Fhpqns7LKNM8GpcD8PoS6tGwMi9gkhpmSd//kKFgkMAuck
CE/foGwmRjWPmPwFpaXDYBei7XTY0pLN9HJN1wchq0z+O4soxH8Le/gXsA==
-----END CERTIFICATE-----
