Certificate:
    Data:
        Version: 3 (0x2)
        Serial Number: 2 (0x2)
    Signature Algorithm: sha256WithRSAEncryption
        Issuer: C=DE, O=Red Hat IdM, OU=Custodia, CN=Custodia Test CA
        Validity
            Not Before: Aug  2 12:07:24 2017 GMT
            Not After : Aug  2 12:07:24 2021 GMT
        Subject: C=DE, O=Red Hat IdM, OU=Custodia, CN=localhost
        Subject Public Key Info:
            Public Key Algorithm: rsaEncryption
                Public-Key: (2048 bit)
                Modulus:
                    00:aa:83:2e:fb:3d:32:1d:b9:75:bb:0d:16:3a:77:
                    c9:b6:7b:fa:95:ab:05:c1:a5:ad:1d:b4:ab:d3:b6:
                    54:d3:94:e8:6c:4f:bb:a8:fc:23:f1:a7:7a:1b:16:
                    f0:07:12:68:ce:30:f3:25:34:e4:84:85:a6:70:3b:
                    2b:ed:bf:0d:8e:3e:54:3d:4a:ad:5e:f7:2e:3b:ef:
                    2a:7b:eb:8f:52:bc:66:5f:78:96:ce:94:b8:0c:bb:
                    ac:e3:3a:37:ea:c3:22:52:15:02:12:b0:45:f7:94:
                    6a:9e:d3:04:7f:1a:0f:9f:53:b3:f6:f1:71:db:b9:
                    3b:a6:6d:9c:70:e7:be:9a:be:fb:3d:94:20:8d:72:
                    65:e1:c1:b1:2f:06:68:c5:20:91:38:86:57:62:fb:
                    49:6f:91:5a:92:ef:f5:28:3f:40:27:f6:51:56:5c:
                    e0:a6:c3:2c:1e:c0:69:57:63:f5:5b:cb:4e:40:38:
                    57:2d:5f:d4:34:c0:f8:9d:cd:08:86:5e:2a:08:d7:
                    65:6c:e1:3f:ca:d2:d7:05:1d:23:8c:24:44:9d:bf:
                    81:d4:2b:ad:64:8a:80:42:44:b2:bd:97:b0:6c:04:
                    47:67:33:88:83:9c:d4:67:9f:72:02:7f:a9:ce:18:
                    fe:9d:b6:3f:43:b9:9e:3f:61:0c:a2:64:ab:20:e2:
                    75:79
                Exponent: 65537 (0x10001)
        X509v3 extensions:
            X509v3 Basic Constraints: critical
                CA:FALSE
            X509v3 Key Usage: critical
                Digital Signature, Key Encipherment
            X509v3 Extended Key Usage: critical
                TLS Web Server Authentication
            X509v3 Subject Key Identifier: 
                C6:62:C2:89:41:6F:05:0E:34:95:AD:AB:00:59:B5:97:D7:79:CC:8B
            X509v3 Authority Key Identifier: 
                keyid:35:2F:B8:E1:7B:12:D5:34:CE:C0:76:69:94:A2:E2:E5:E9:17:7C:3D

            X509v3 Subject Alternative Name: 
                DNS:localhost, IP Address:127.0.0.1
    Signature Algorithm: sha256WithRSAEncryption
         1e:86:55:f6:9f:79:e6:7a:6f:4d:2a:5d:64:c6:c6:5a:f3:7d:
         4a:a5:1f:a5:f0:0d:65:f6:ea:ce:31:9e:55:e6:34:f6:25:1c:
         5a:9f:91:49:cb:17:35:65:81:5a:a3:16:e6:45:8e:5f:7f:4f:
         22:f0:87:8b:df:8b:c9:dc:38:c2:88:df:68:d0:e4:f7:83:cb:
         1f:11:b0:50:ad:51:fa:94:7c:f9:7d:45:47:2b:0c:0c:12:b6:
         b4:2f:bb:25:d6:dd:23:73:e8:3e:9c:d0:c1:17:ca:9a:55:0f:
         56:b4:8b:e4:88:7a:d9:ed:8f:da:19:51:34:be:7b:03:e8:6e:
         1e:ae:cb:87:7f:85:46:33:01:89:81:84:06:59:56:2a:cc:37:
         a1:7b:62:f2:69:53:dc:8d:ba:f4:d7:8f:4b:14:83:0a:42:0a:
         5a:b9:66:cb:44:59:37:3e:ac:0c:3e:46:ef:80:bc:b4:ea:6c:
         2e:3a:6c:a1:d6:4f:c6:01:7c:4e:be:d5:83:76:77:36:b7:13:
         e6:01:59:07:72:85:66:51:c5:f1:39:60:d7:07:65:e9:c0:72:
         bf:aa:5e:61:67:90:cd:65:4f:8e:ff:96:c1:4d:a8:43:2e:0b:
         2b:6a:e8:d5:85:31:e9:91:4c:86:c7:eb:8c:90:ff:0d:c9:cd:
         9f:c7:41:9b
-----BEGIN CERTIFICATE-----
MIIDrDCCApSgAwIBAgIBAjANBgkqhkiG9w0BAQsFADBRMQswCQYDVQQGEwJERTEU
MBIGA1UECgwLUmVkIEhhdCBJZE0xETAPBgNVBAsMCEN1c3RvZGlhMRkwFwYDVQQD
DBBDdXN0b2RpYSBUZXN0IENBMB4XDTE3MDgwMjEyMDcyNFoXDTIxMDgwMjEyMDcy
NFowSjELMAkGA1UEBhMCREUxFDASBgNVBAoMC1JlZCBIYXQgSWRNMREwDwYDVQQL
DAhDdXN0b2RpYTESMBAGA1UEAwwJbG9jYWxob3N0MIIBIjANBgkqhkiG9w0BAQEF
AAOCAQ8AMIIBCgKCAQEAqoMu+z0yHbl1uw0WOnfJtnv6lasFwaWtHbSr07ZU05To
bE+7qPwj8ad6GxbwBxJozjDzJTTkhIWmcDsr7b8Njj5UPUqtXvcuO+8qe+uPUrxm
X3iWzpS4DLus4zo36sMiUhUCErBF95RqntMEfxoPn1Oz9vFx27k7pm2ccOe+mr77
PZQgjXJl4cGxLwZoxSCROIZXYvtJb5Faku/1KD9AJ/ZRVlzgpsMsHsBpV2P1W8tO
QDhXLV/UNMD4nc0Ihl4qCNdlbOE/ytLXBR0jjCREnb+B1CutZIqAQkSyvZewbARH
ZzOIg5zUZ59yAn+pzhj+nbY/Q7meP2EMomSrIOJ1eQIDAQABo4GVMIGSMAwGA1Ud
EwEB/wQCMAAwDgYDVR0PAQH/BAQDAgWgMBYGA1UdJQEB/wQMMAoGCCsGAQUFBwMB
MB0GA1UdDgQWBBTGYsKJQW8FDjSVrasAWbWX13nMizAfBgNVHSMEGDAWgBQ1L7jh
exLVNM7AdmmUouLl6Rd8PTAaBgNVHREEEzARgglsb2NhbGhvc3SHBH8AAAEwDQYJ
KoZIhvcNAQELBQADggEBAB6GVfafeeZ6b00qXWTGxlrzfUqlH6XwDWX26s4xnlXm
NPYlHFqfkUnLFzVlgVqjFuZFjl9/TyLwh4vfi8ncOMKI32jQ5PeDyx8RsFCtUfqU
fPl9RUcrDAwStrQvuyXW3SNz6D6c0MEXyppVD1a0i+SIetntj9oZUTS+ewPobh6u
y4d/hUYzAYmBhAZZVirMN6F7YvJpU9yNuvTXj0sUgwpCClq5ZstEWTc+rAw+Ru+A
vLTqbC46bKHWT8YBfE6+1YN2dza3E+YBWQdyhWZRxfE5YNcHZenAcr+qXmFnkM1l
T47/lsFNqEMuCytq6NWFMemRTIbH64yQ/w3JzZ/HQZs=
-----END CERTIFICATE-----
