Certificate:
    Data:
        Version: 3 (0x2)
        Serial Number: 2 (0x2)
        Signature Algorithm: sha384WithRSAEncryption
        Issuer: C=DE, O=Red Hat IdM, OU=Custodia, CN=Custodia Test CA
        Validity
            Not Before: Sep 14 19:05:29 2022 GMT
            Not After : Sep 13 19:05:29 2027 GMT
        Subject: C=DE, O=Red Hat IdM, OU=Custodia, CN=localhost
        Subject Public Key Info:
            Public Key Algorithm: rsaEncryption
                Public-Key: (2048 bit)
                Modulus:
                    00:cb:6c:89:43:84:85:b8:c2:6a:ef:5c:fe:0d:22:
                    37:6b:14:41:33:ed:72:f5:58:e3:2e:c8:59:8a:ad:
                    27:58:67:49:58:4a:5d:b6:2b:1e:c6:38:fa:15:4f:
                    70:b6:39:12:28:2c:e9:97:33:7f:8d:f7:07:cb:40:
                    1c:6a:cf:66:db:3b:7e:30:ed:09:b3:a6:d4:fb:5b:
                    ab:c9:ce:24:89:b1:a7:17:a7:bd:4e:d3:09:6f:80:
                    04:ae:8e:81:0d:e3:e4:55:46:a7:45:8a:d1:4c:1e:
                    50:d9:05:d7:fa:ef:2b:ee:37:b3:fb:28:b2:c6:89:
                    e2:bc:85:77:ff:a8:ed:36:34:d3:5d:30:48:64:4f:
                    2a:f0:43:55:3b:b6:ae:26:e1:27:2e:22:be:fc:9e:
                    83:6d:e5:52:51:e4:b5:b6:72:8c:19:b4:b7:4d:f0:
                    a4:24:85:48:58:08:39:cf:33:b1:3d:b7:4f:2b:4a:
                    19:40:27:d0:68:12:f0:5e:d1:53:19:02:0e:5a:1d:
                    12:f7:b4:6a:80:be:e7:39:45:e3:82:8c:8a:74:2e:
                    d1:47:f9:59:e5:6f:47:b9:77:0a:a0:0c:4d:8e:e2:
                    f4:81:a1:28:7e:35:89:bb:a8:dd:90:89:16:2c:16:
                    82:eb:30:7e:dd:d1:9f:59:16:9a:68:f8:d4:83:b9:
                    6f:21
                Exponent: 65537 (0x10001)
        X509v3 extensions:
            X509v3 Basic Constraints: critical
                CA:FALSE
            X509v3 Key Usage: critical
                Digital Signature, Key Encipherment
            X509v3 Extended Key Usage: critical
                TLS Web Server Authentication
            X509v3 Subject Key Identifier: 
                09:4C:0C:10:31:52:D8:0E:8A:11:91:73:F2:BD:36:F3:5A:9D:F0:F8
            X509v3 Authority Key Identifier: 
                54:17:6B:06:64:74:EA:79:31:1D:0C:B8:59:8D:74:FA:B8:D0:20:C1
            X509v3 Subject Alternative Name: 
                DNS:localhost, IP Address:127.0.0.1
    Signature Algorithm: sha384WithRSAEncryption
    Signature Value:
        96:c5:6c:6d:07:27:3c:87:dc:cc:28:ce:7d:ae:fb:35:5a:b3:
        39:71:20:ac:40:ac:61:e9:59:cd:9a:c2:9c:b1:c4:98:a8:c7:
        bb:d5:60:a6:6b:8f:4d:0e:50:23:53:a0:ab:ba:df:a3:f8:94:
        b1:42:da:b0:83:e6:00:1b:16:a6:e2:d6:5d:11:a2:51:3b:9b:
        e8:0a:ce:c0:50:56:15:86:ca:38:05:a9:f7:91:5c:3c:e7:fc:
        10:b1:26:3a:84:d4:12:97:0a:73:62:59:26:75:f2:7b:44:56:
        ba:28:73:f8:ec:3c:60:bb:e3:27:ce:b0:85:26:9c:1f:2d:3b:
        50:36:70:a5:f3:2d:f2:1d:8b:86:e9:81:b2:d3:d1:5c:3b:65:
        c7:03:58:dc:ac:5a:40:f9:f6:68:79:ea:bd:2f:97:95:ec:e4:
        40:fc:ff:82:81:4e:71:ff:13:82:ae:a3:53:4b:5b:34:db:cd:
        4e:22:ae:8f:bf:2b:46:c2:6c:40:6d:6c:4c:8d:a8:11:ae:a2:
        ef:c3:df:66:e8:df:d7:0c:7d:82:0f:44:e4:56:b0:cf:0b:08:
        ac:ce:4f:48:b8:55:e6:1c:63:9b:a4:de:3f:ec:ce:66:f0:a1:
        32:9d:c7:4e:87:0c:99:e6:58:3c:97:9c:3a:67:f9:2c:9c:88:
        7e:be:78:6c:70:c8:cc:dd:61:d2:db:ab:da:b9:2b:3e:31:ce:
        69:c1:f6:83:cb:e6:91:a2:1f:e7:62:c9:e6:0f:a4:3f:0e:ad:
        a6:30:0e:f8:8d:5c:d1:4a:8d:ee:e0:52:a4:bd:3f:1a:4f:01:
        2c:77:cf:90:e0:4c:22:23:0d:8c:dc:8e:1a:ca:6d:c2:2d:4c:
        e8:23:45:13:bb:f7:cb:49:53:a6:e8:af:39:1e:01:d9:98:f7:
        61:93:08:b7:31:80:1f:c9:f4:75:bc:cb:85:7a:ea:d7:c3:91:
        99:52:67:4a:da:28:0d:f5:17:8b:c2:61:e9:5c:db:e7:28:d9:
        d0:0c:d6:89:af:ef
-----BEGIN CERTIFICATE-----
MIIELDCCApSgAwIBAgIBAjANBgkqhkiG9w0BAQwFADBRMQswCQYDVQQGEwJERTEU
MBIGA1UECgwLUmVkIEhhdCBJZE0xETAPBgNVBAsMCEN1c3RvZGlhMRkwFwYDVQQD
DBBDdXN0b2RpYSBUZXN0IENBMB4XDTIyMDkxNDE5MDUyOVoXDTI3MDkxMzE5MDUy
OVowSjELMAkGA1UEBhMCREUxFDASBgNVBAoMC1JlZCBIYXQgSWRNMREwDwYDVQQL
DAhDdXN0b2RpYTESMBAGA1UEAwwJbG9jYWxob3N0MIIBIjANBgkqhkiG9w0BAQEF
AAOCAQ8AMIIBCgKCAQEAy2yJQ4SFuMJq71z+DSI3axRBM+1y9VjjLshZiq0nWGdJ
WEpdtisexjj6FU9wtjkSKCzplzN/jfcHy0Acas9m2zt+MO0Js6bU+1uryc4kibGn
F6e9TtMJb4AEro6BDePkVUanRYrRTB5Q2QXX+u8r7jez+yiyxonivIV3/6jtNjTT
XTBIZE8q8ENVO7auJuEnLiK+/J6DbeVSUeS1tnKMGbS3TfCkJIVIWAg5zzOxPbdP
K0oZQCfQaBLwXtFTGQIOWh0S97RqgL7nOUXjgoyKdC7RR/lZ5W9HuXcKoAxNjuL0
gaEofjWJu6jdkIkWLBaC6zB+3dGfWRaaaPjUg7lvIQIDAQABo4GVMIGSMAwGA1Ud
EwEB/wQCMAAwDgYDVR0PAQH/BAQDAgWgMBYGA1UdJQEB/wQMMAoGCCsGAQUFBwMB
MB0GA1UdDgQWBBQJTAwQMVLYDooRkXPyvTbzWp3w+DAfBgNVHSMEGDAWgBRUF2sG
ZHTqeTEdDLhZjXT6uNAgwTAaBgNVHREEEzARgglsb2NhbGhvc3SHBH8AAAEwDQYJ
KoZIhvcNAQEMBQADggGBAJbFbG0HJzyH3Mwozn2u+zVaszlxIKxArGHpWc2awpyx
xJiox7vVYKZrj00OUCNToKu636P4lLFC2rCD5gAbFqbi1l0RolE7m+gKzsBQVhWG
yjgFqfeRXDzn/BCxJjqE1BKXCnNiWSZ18ntEVrooc/jsPGC74yfOsIUmnB8tO1A2
cKXzLfIdi4bpgbLT0Vw7ZccDWNysWkD59mh56r0vl5Xs5ED8/4KBTnH/E4Kuo1NL
WzTbzU4iro+/K0bCbEBtbEyNqBGuou/D32bo39cMfYIPRORWsM8LCKzOT0i4VeYc
Y5uk3j/szmbwoTKdx06HDJnmWDyXnDpn+SyciH6+eGxwyMzdYdLbq9q5Kz4xzmnB
9oPL5pGiH+diyeYPpD8OraYwDviNXNFKje7gUqS9PxpPASx3z5DgTCIjDYzcjhrK
bcItTOgjRRO798tJU6borzkeAdmY92GTCLcxgB/J9HW8y4V66tfDkZlSZ0raKA31
F4vCYelc2+co2dAM1omv7w==
-----END CERTIFICATE-----
