Certificate:
    Data:
        Version: 3 (0x2)
        Serial Number: 1 (0x1)
    Signature Algorithm: sha256WithRSAEncryption
        Issuer: C=DE, O=Red Hat IdM, OU=Custodia, CN=Custodia Test CA
        Validity
            Not Before: Apr 29 18:01:24 2016 GMT
            Not After : Apr 29 18:01:24 2017 GMT
        Subject: C=DE, O=Red Hat IdM, OU=Custodia, CN=Custodia Test CA
        Subject Public Key Info:
            Public Key Algorithm: rsaEncryption
                Public-Key: (2048 bit)
                Modulus:
                    00:ab:81:af:c8:c6:34:03:46:60:fc:bc:a7:de:cf:
                    7c:b2:7b:91:ea:ed:97:d6:50:b0:96:64:3b:dd:e9:
                    09:22:46:1a:93:87:5f:f7:b4:de:11:39:70:94:94:
                    44:91:48:c3:7c:08:90:dd:dc:2c:ce:8f:59:f9:bb:
                    33:20:31:ed:ea:07:89:e0:57:5f:78:d2:bb:50:63:
                    b4:f3:c1:da:97:8b:35:a6:ac:7b:18:cf:ac:e6:46:
                    9b:3d:46:7f:9b:d0:95:35:9e:c1:7f:76:35:c4:18:
                    10:5c:bc:85:10:9d:f1:74:10:2b:d4:47:66:84:b7:
                    cd:f5:1e:9d:02:0e:e3:65:8f:5d:6c:37:bb:10:dd:
                    d7:d7:dc:82:23:7a:3b:c6:23:c3:e9:68:6d:d7:c1:
                    e1:d8:a5:3a:ee:3c:69:00:42:5e:bb:96:ef:c5:54:
                    3a:6e:60:2b:8d:27:b0:97:a0:eb:39:6f:7d:ba:5e:
                    4e:e9:1f:d7:af:c6:3d:e9:05:fe:ec:b9:a5:81:77:
                    09:c1:7c:9b:76:38:0c:83:cd:e4:fe:2e:04:06:43:
                    36:3f:1d:de:75:6e:49:1f:c9:25:2a:37:fd:81:44:
                    53:cc:f6:7d:55:fb:ce:32:83:6c:84:c0:a5:79:14:
                    c7:f2:b8:fc:a8:3b:49:13:94:63:17:f5:a1:57:41:
                    e5:bb
                Exponent: 65537 (0x10001)
        X509v3 extensions:
            X509v3 Basic Constraints: critical
                CA:TRUE, pathlen:0
            X509v3 Key Usage: critical
                Certificate Sign, CRL Sign
            X509v3 Extended Key Usage: critical
                TLS Web Server Authentication
            X509v3 Subject Key Identifier:
                96:B7:D6:4B:E0:FD:BA:FB:99:2A:A2:45:57:CF:A3:FD:BF:40:50:15
            X509v3 Authority Key Identifier:
                keyid:96:B7:D6:4B:E0:FD:BA:FB:99:2A:A2:45:57:CF:A3:FD:BF:40:50:15

    Signature Algorithm: sha256WithRSAEncryption
         7c:58:9f:4d:c2:c5:45:56:cd:39:7d:15:d4:83:55:03:0e:ec:
         0f:83:8e:71:38:be:e7:d8:e8:f6:58:01:67:33:cd:1a:46:db:
         6d:a1:ee:d7:2e:67:1f:00:c3:0a:fe:96:3b:73:5b:37:28:cc:
         76:c7:15:22:43:16:3d:ab:29:af:7c:59:e9:3f:b3:60:36:a4:
         e9:bc:73:8a:9d:81:0c:1f:4a:78:cd:fe:72:23:c2:70:c0:09:
         91:4d:ee:b0:ad:cb:13:66:2c:57:82:c3:5b:8a:1a:ec:74:46:
         01:90:5d:ad:b5:d7:ea:c0:78:12:9a:46:4e:24:b4:ec:cb:11:
         1e:6b:25:b6:ff:97:66:19:31:c9:22:54:6f:54:fe:88:55:11:
         ec:5f:0f:2d:68:40:b1:64:69:f5:fc:49:49:78:48:37:c2:b0:
         93:8b:3c:73:a4:72:00:3c:cf:36:5a:01:69:f0:18:10:ec:4c:
         0e:92:00:3c:a9:36:05:c7:3e:7b:94:d1:6f:e5:24:81:e1:88:
         07:81:88:9d:7c:4b:27:6a:dd:cc:d1:31:46:1a:19:f9:08:3e:
         0a:38:fc:fa:e7:24:6b:0b:d6:52:3e:02:7a:30:e0:e3:d1:b4:
         e5:a9:2f:fc:9b:b5:bd:09:f1:d4:3a:c3:8a:c4:d5:0e:11:b3:
         b1:0a:bf:df
-----BEGIN CERTIFICATE-----
MIIDmzCCAoOgAwIBAgIBATANBgkqhkiG9w0BAQsFADBRMQswCQYDVQQGEwJERTEU
MBIGA1UECgwLUmVkIEhhdCBJZE0xETAPBgNVBAsMCEN1c3RvZGlhMRkwFwYDVQQD
DBBDdXN0b2RpYSBUZXN0IENBMB4XDTE2MDQyOTE4MDEyNFoXDTE3MDQyOTE4MDEy
NFowUTELMAkGA1UEBhMCREUxFDASBgNVBAoMC1JlZCBIYXQgSWRNMREwDwYDVQQL
DAhDdXN0b2RpYTEZMBcGA1UEAwwQQ3VzdG9kaWEgVGVzdCBDQTCCASIwDQYJKoZI
hvcNAQEBBQADggEPADCCAQoCggEBAKuBr8jGNANGYPy8p97PfLJ7kertl9ZQsJZk
O93pCSJGGpOHX/e03hE5cJSURJFIw3wIkN3cLM6PWfm7MyAx7eoHieBXX3jSu1Bj
tPPB2peLNaasexjPrOZGmz1Gf5vQlTWewX92NcQYEFy8hRCd8XQQK9RHZoS3zfUe
nQIO42WPXWw3uxDd19fcgiN6O8Yjw+lobdfB4dilOu48aQBCXruW78VUOm5gK40n
sJeg6zlvfbpeTukf16/GPekF/uy5pYF3CcF8m3Y4DIPN5P4uBAZDNj8d3nVuSR/J
JSo3/YFEU8z2fVX7zjKDbITApXkUx/K4/Kg7SROUYxf1oVdB5bsCAwEAAaN+MHww
EgYDVR0TAQH/BAgwBgEB/wIBADAOBgNVHQ8BAf8EBAMCAQYwFgYDVR0lAQH/BAww
CgYIKwYBBQUHAwEwHQYDVR0OBBYEFJa31kvg/br7mSqiRVfPo/2/QFAVMB8GA1Ud
IwQYMBaAFJa31kvg/br7mSqiRVfPo/2/QFAVMA0GCSqGSIb3DQEBCwUAA4IBAQB8
WJ9NwsVFVs05fRXUg1UDDuwPg45xOL7n2Oj2WAFnM80aRtttoe7XLmcfAMMK/pY7
c1s3KMx2xxUiQxY9qymvfFnpP7NgNqTpvHOKnYEMH0p4zf5yI8JwwAmRTe6wrcsT
ZixXgsNbihrsdEYBkF2ttdfqwHgSmkZOJLTsyxEeayW2/5dmGTHJIlRvVP6IVRHs
Xw8taECxZGn1/ElJeEg3wrCTizxzpHIAPM82WgFp8BgQ7EwOkgA8qTYFxz57lNFv
5SSB4YgHgYidfEsnat3M0TFGGhn5CD4KOPz65yRrC9ZSPgJ6MODj0bTlqS/8m7W9
CfHUOsOKxNUOEbOxCr/f
-----END CERTIFICATE-----
