Certificate:
    Data:
        Version: 3 (0x2)
        Serial Number: 2 (0x2)
    Signature Algorithm: sha256WithRSAEncryption
        Issuer: C=DE, O=Red Hat IdM, OU=Custodia, CN=Custodia Test CA
        Validity
            Not Before: Apr 29 18:01:24 2016 GMT
            Not After : Apr 29 18:01:24 2017 GMT
        Subject: C=DE, O=Red Hat IdM, OU=Custodia, CN=localhost
        Subject Public Key Info:
            Public Key Algorithm: rsaEncryption
                Public-Key: (2048 bit)
                Modulus:
                    00:e6:f6:3f:f7:6e:af:bc:f0:fc:32:23:1a:65:de:
                    6d:3b:ce:bf:45:d4:68:c3:55:dc:df:eb:22:60:ea:
                    eb:4d:31:92:09:37:a2:42:04:b9:45:5b:3d:de:aa:
                    c3:c0:7d:7d:83:51:c0:c8:c3:2a:ce:95:1f:7f:40:
                    12:4c:88:c3:da:3c:d5:17:07:5f:27:9c:66:46:ab:
                    5b:47:12:c4:f0:a1:9b:e4:39:ee:6b:1f:4b:f4:57:
                    5c:b0:8a:2b:cb:16:44:9e:d7:8e:58:36:47:e9:43:
                    ee:4d:0d:bc:c2:2f:c9:76:a7:c8:02:62:b9:61:1e:
                    f5:e9:c6:f8:6b:81:b8:c2:b5:68:82:2b:2c:87:b3:
                    55:0b:96:f0:32:54:9b:cf:12:60:1b:d4:22:2d:ef:
                    40:80:c3:e8:ee:06:54:ed:1c:a5:61:f1:dd:91:d4:
                    72:ef:00:4a:03:46:34:e9:e4:14:a4:83:c7:4c:30:
                    60:e2:d4:8d:0a:2c:11:cc:a5:51:a4:3f:6c:6a:3e:
                    40:93:06:dc:12:07:cc:cf:95:40:86:b2:59:98:1c:
                    48:95:7e:08:23:5c:23:88:3a:a9:11:2c:50:c5:82:
                    0a:67:89:c7:7d:92:13:bd:43:54:66:4a:69:2b:a9:
                    82:02:b4:49:48:fa:8d:6b:fb:f3:92:6e:66:25:c2:
                    9d:1d
                Exponent: 65537 (0x10001)
        X509v3 extensions:
            X509v3 Basic Constraints: critical
                CA:FALSE
            X509v3 Key Usage: critical
                Digital Signature, Key Encipherment
            X509v3 Extended Key Usage: critical
                TLS Web Server Authentication
            X509v3 Subject Key Identifier:
                32:65:58:7B:13:FB:C7:C3:EF:81:95:A2:3E:4D:8E:A0:C3:EF:A6:38
            X509v3 Authority Key Identifier:
                keyid:96:B7:D6:4B:E0:FD:BA:FB:99:2A:A2:45:57:CF:A3:FD:BF:40:50:15

            X509v3 Subject Alternative Name:
                DNS:localhost, IP Address:127.0.0.1
    Signature Algorithm: sha256WithRSAEncryption
         12:f8:f6:e4:e4:23:7c:82:86:aa:f1:c7:db:ff:35:97:e4:40:
         5d:2b:d4:07:59:94:3b:65:dd:a3:ca:28:77:83:05:ee:70:a7:
         3f:ae:08:0a:41:5d:e5:f5:35:e1:6f:c4:03:40:97:21:d6:35:
         71:ae:50:e1:84:41:2e:95:77:df:32:0c:5b:77:3a:c5:8c:3e:
         bb:d0:14:8d:34:6e:34:04:4b:57:cb:c8:e6:7e:a0:d2:c5:ba:
         b1:00:e3:03:d0:71:5a:03:f6:3f:f7:f5:c0:91:31:cc:43:83:
         ce:45:26:4f:bd:cf:c4:f9:b8:e7:4a:86:dd:e0:1e:d8:6f:15:
         7c:06:cd:f5:04:d6:b3:3c:06:ff:80:ad:d3:16:93:44:59:93:
         50:af:b6:d9:7d:51:c2:f3:4a:b0:42:d2:54:d7:f0:d0:b4:b7:
         d7:0d:36:1e:04:76:f0:84:9a:97:ef:96:63:8f:bb:35:24:e2:
         75:31:b5:56:72:e1:e5:be:93:41:7f:7a:bb:e6:bd:e3:6e:df:
         b9:a4:3a:ac:09:b4:3a:76:35:1b:db:16:86:01:6a:63:9c:5d:
         1c:79:ca:f5:13:0b:df:7f:0c:40:ed:06:13:54:65:54:ce:bf:
         1d:06:1a:f3:c8:64:0d:d8:40:a0:38:d6:7d:51:41:15:d1:01:
         c3:e7:1d:b2
-----BEGIN CERTIFICATE-----
MIIDrDCCApSgAwIBAgIBAjANBgkqhkiG9w0BAQsFADBRMQswCQYDVQQGEwJERTEU
MBIGA1UECgwLUmVkIEhhdCBJZE0xETAPBgNVBAsMCEN1c3RvZGlhMRkwFwYDVQQD
DBBDdXN0b2RpYSBUZXN0IENBMB4XDTE2MDQyOTE4MDEyNFoXDTE3MDQyOTE4MDEy
NFowSjELMAkGA1UEBhMCREUxFDASBgNVBAoMC1JlZCBIYXQgSWRNMREwDwYDVQQL
DAhDdXN0b2RpYTESMBAGA1UEAwwJbG9jYWxob3N0MIIBIjANBgkqhkiG9w0BAQEF
AAOCAQ8AMIIBCgKCAQEA5vY/926vvPD8MiMaZd5tO86/RdRow1Xc3+siYOrrTTGS
CTeiQgS5RVs93qrDwH19g1HAyMMqzpUff0ASTIjD2jzVFwdfJ5xmRqtbRxLE8KGb
5Dnuax9L9FdcsIoryxZEnteOWDZH6UPuTQ28wi/JdqfIAmK5YR716cb4a4G4wrVo
gissh7NVC5bwMlSbzxJgG9QiLe9AgMPo7gZU7RylYfHdkdRy7wBKA0Y06eQUpIPH
TDBg4tSNCiwRzKVRpD9saj5AkwbcEgfMz5VAhrJZmBxIlX4II1wjiDqpESxQxYIK
Z4nHfZITvUNUZkppK6mCArRJSPqNa/vzkm5mJcKdHQIDAQABo4GVMIGSMAwGA1Ud
EwEB/wQCMAAwDgYDVR0PAQH/BAQDAgWgMBYGA1UdJQEB/wQMMAoGCCsGAQUFBwMB
MB0GA1UdDgQWBBQyZVh7E/vHw++BlaI+TY6gw++mODAfBgNVHSMEGDAWgBSWt9ZL
4P26+5kqokVXz6P9v0BQFTAaBgNVHREEEzARgglsb2NhbGhvc3SHBH8AAAEwDQYJ
KoZIhvcNAQELBQADggEBABL49uTkI3yChqrxx9v/NZfkQF0r1AdZlDtl3aPKKHeD
Be5wpz+uCApBXeX1NeFvxANAlyHWNXGuUOGEQS6Vd98yDFt3OsWMPrvQFI00bjQE
S1fLyOZ+oNLFurEA4wPQcVoD9j/39cCRMcxDg85FJk+9z8T5uOdKht3gHthvFXwG
zfUE1rM8Bv+ArdMWk0RZk1Cvttl9UcLzSrBC0lTX8NC0t9cNNh4EdvCEmpfvlmOP
uzUk4nUxtVZy4eW+k0F/ervmveNu37mkOqwJtDp2NRvbFoYBamOcXRx5yvUTC99/
DEDtBhNUZVTOvx0GGvPIZA3YQKA41n1RQRXRAcPnHbI=
-----END CERTIFICATE-----
